(lp0
S'/'
p1
aI1
aI0
aI0
aI0
aI0
aI0
a(lp2
(lp3
S'etc'
p4
aI1
aI1000
aI1000
aI4096
aI16893
aI1610541437
a(lp5
(lp6
S'inittab'
p7
aI2
aI1000
aI1000
aI2013
aI33204
aI1610541437
a(lp8
aNaNaa(lp9
S'passwd'
p10
aI2
aI1000
aI1000
aI868
aI33204
aI1610541437
a(lp11
aNaNaa(lp12
S'group'
p13
aI2
aI1000
aI1000
aI538
aI33204
aI1610541437
a(lp14
aNaNaa(lp15
S'inforecFTP.xml'
p16
aI2
aI1000
aI1000
aI559
aI33204
aI1610541437
a(lp17
aNaNaa(lp18
S'issue'
p19
aI2
aI1000
aI1000
aI26
aI33204
aI1610541437
a(lp20
aNaNaa(lp21
S'resolv.conf'
p22
aI2
aI1000
aI1000
aI38
aI33204
aI1610541437
a(lp23
aNaNaa(lp24
S'hosts'
p25
aI2
aI1000
aI1000
aI184
aI33204
aI1610541437
a(lp26
aNaNaa(lp27
S'motd'
p28
aI2
aI1000
aI1000
aI286
aI33204
aI1610541437
a(lp29
aNaNaa(lp30
S'hostname'
p31
aI2
aI1000
aI1000
aI6
aI33204
aI1610541437
a(lp32
aNaNaa(lp33
S'shadow'
p34
aI2
aI1000
aI1000
aI750
aI33204
aI1610541437
a(lp35
aNaNaa(lp36
S'host.conf'
p37
aI2
aI1000
aI1000
aI9
aI33204
aI1610541437
a(lp38
aNaNaaaNaNaa(lp39
S'proc'
p40
aI1
aI1000
aI1000
aI4096
aI16893
aI1610541437
a(lp41
(lp42
S'modules'
p43
aI2
aI1000
aI1000
aI4395
aI33204
aI1610541437
a(lp44
aNaNaa(lp45
S'version'
p46
aI2
aI1000
aI1000
aI130
aI33204
aI1610541437
a(lp47
aNaNaa(lp48
S'net'
p49
aI1
aI1000
aI1000
aI4096
aI16893
aI1610541437
a(lp50
(lp51
S'arp'
p52
aI2
aI1000
aI1000
aI233
aI33204
aI1610541437
a(lp53
aNaNaaaNaNaa(lp54
S'meminfo'
p55
aI2
aI1000
aI1000
aI1170
aI33204
aI1610541437
a(lp56
aNaNaa(lp57
S'cpuinfo'
p58
aI2
aI1000
aI1000
aI1412
aI33204
aI1610541437
a(lp59
aNaNaa(lp60
S'mounts'
p61
aI2
aI1000
aI1000
aI827
aI33204
aI1610541437
a(lp62
aNaNaaaNaNaaaS''
p63
a.