(lp0
S'/'
p1
aI1
aI0
aI0
aI0
aI0
aI0
a(lp2
(lp3
S'fs.pickle'
p4
aI2
aI1000
aI1000
aI0
aI33204
aI1610558590
a(lp5
aNaNaa(lp6
S'txtcmds'
p7
aI1
aI1000
aI1000
aI4096
aI16893
aI1610541437
a(lp8
(lp9
S'usr'
p10
aI1
aI1000
aI1000
aI4096
aI16893
aI1610541437
a(lp11
(lp12
S'bin'
p13
aI1
aI1000
aI1000
aI4096
aI16893
aI1610541437
a(lp14
(lp15
S'pico'
p16
aI2
aI1000
aI1000
aI31
aI33204
aI1610541437
a(lp17
aNaNaa(lp18
S'vi'
p19
aI2
aI1000
aI1000
aI43
aI33204
aI1610541437
a(lp20
aNaNaa(lp21
S'pkill'
p22
aI2
aI1000
aI1000
aI0
aI33204
aI1610541437
a(lp23
aNaNaa(lp24
S'killall'
p25
aI2
aI1000
aI1000
aI17
aI33204
aI1610541437
a(lp26
aNaNaa(lp27
S'getconf'
p28
aI2
aI1000
aI1000
aI3
aI33204
aI1610541437
a(lp29
aNaNaa(lp30
S'vim'
p31
aI2
aI1000
aI1000
aI43
aI33204
aI1610541437
a(lp32
aNaNaa(lp33
S'top'
p34
aI2
aI1000
aI1000
aI44
aI33204
aI1610541437
a(lp35
aNaNaa(lp36
S'emacs'
p37
aI2
aI1000
aI1000
aI28
aI33204
aI1610541437
a(lp38
aNaNaa(lp39
S'make'
p40
aI2
aI1000
aI1000
aI61
aI33204
aI1610541437
a(lp41
aNaNaa(lp42
S'nproc'
p43
aI2
aI1000
aI1000
aI2
aI33204
aI1610541437
a(lp44
aNaNaa(lp45
S'locate'
p46
aI2
aI1000
aI1000
aI77
aI33204
aI1610541437
a(lp47
aNaNaa(lp48
S'clear'
p49
aI2
aI1000
aI1000
aI6
aI33204
aI1610541437
a(lp50
aNaNaa(lp51
S'lscpu'
p52
aI2
aI1000
aI1000
aI597
aI33204
aI1610541437
a(lp53
aNaNaa(lp54
S'nano'
p55
aI2
aI1000
aI1000
aI43
aI33204
aI1610541437
a(lp56
aNaNaaaNaNaa(lp57
S'sbin'
p58
aI1
aI1000
aI1000
aI4096
aI16893
aI1610541437
a(lp59
(lp60
S'vipw'
p61
aI2
aI1000
aI1000
aI75
aI33204
aI1610541437
a(lp62
aNaNaaaNaNaaaNaNaa(lp63
S'bin'
p64
aI1
aI1000
aI1000
aI4096
aI16893
aI1610541437
a(lp65
(lp66
S'dmesg'
p67
aI2
aI1000
aI1000
aI33608
aI33204
aI1610541437
a(lp68
aNaNaa(lp69
S'mount'
p70
aI2
aI1000
aI1000
aI353
aI33204
aI1610541437
a(lp71
aNaNaa(lp72
S'stty'
p73
aI2
aI1000
aI1000
aI0
aI33204
aI1610541437
a(lp74
aNaNaa(lp75
S'sync'
p76
aI2
aI1000
aI1000
aI0
aI33204
aI1610541437
a(lp77
aNaNaa(lp78
S'ulimit'
p79
aI2
aI1000
aI1000
aI690
aI33204
aI1610541437
a(lp80
aNaNaa(lp81
S'enable'
p82
aI2
aI1000
aI1000
aI743
aI33204
aI1610541437
a(lp83
aNaNaa(lp84
S'df'
p85
aI2
aI1000
aI1000
aI590
aI33204
aI1610541437
a(lp86
aNaNaaaNaNaaaNaNaa(lp87
S'arch'
p88
aI1
aI1000
aI1000
aI4096
aI16893
aI1610541437
a(lp89
(lp90
S'linux-tilegx64-msb'
p91
aI2
aI1000
aI1000
aI344
aI33204
aI1610541437
a(lp92
aNaNaa(lp93
S'linux-aarch64-msb'
p94
aI2
aI1000
aI1000
aI336
aI33204
aI1610541437
a(lp95
aNaNaa(lp96
S'linux-aarch64-lsb'
p97
aI2
aI1000
aI1000
aI336
aI33204
aI1610541437
a(lp98
aNaNaa(lp99
S'linux-arm-lsb'
p100
aI2
aI1000
aI1000
aI300
aI33204
aI1610541437
a(lp101
aNaNaa(lp102
S'linux-sparc64-msb'
p103
aI2
aI1000
aI1000
aI336
aI33204
aI1610541437
a(lp104
aNaNaa(lp105
S'osx-x32-lsb'
p106
aI2
aI1000
aI1000
aI4228
aI33204
aI1610541437
a(lp107
aNaNaa(lp108
S'bsd-mips-msb'
p109
aI2
aI1000
aI1000
aI540
aI33204
aI1610541437
a(lp110
aNaNaa(lp111
S'linux-c6x-msb'
p112
aI2
aI1000
aI1000
aI344
aI33204
aI1610541437
a(lp113
aNaNaa(lp114
S'linux-am33-lsb'
p115
aI2
aI1000
aI1000
aI224
aI33204
aI1610541437
a(lp116
aNaNaa(lp117
S'linux-arm-msb'
p118
aI2
aI1000
aI1000
aI300
aI33204
aI1610541437
a(lp119
aNaNaa(lp120
S'linux-c6x-lsb'
p121
aI2
aI1000
aI1000
aI344
aI33204
aI1610541437
a(lp122
aNaNaa(lp123
S'bsd-powepc64-lsb'
p124
aI2
aI1000
aI1000
aI408
aI33204
aI1610541437
a(lp125
aNaNaa(lp126
S'linux-powerpc-lsb'
p127
aI2
aI1000
aI1000
aI556
aI33204
aI1610541437
a(lp128
aNaNaa(lp129
S'linux-arc-msb'
p130
aI2
aI1000
aI1000
aI528
aI33204
aI1610541437
a(lp131
aNaNaa(lp132
S'linux-frv-msb'
p133
aI2
aI1000
aI1000
aI260
aI33204
aI1610541437
a(lp134
aNaNaa(lp135
S'bsd-mips64-msb'
p136
aI2
aI1000
aI1000
aI720
aI33204
aI1610541437
a(lp137
aNaNaa(lp138
S'linux-arc-lsb'
p139
aI2
aI1000
aI1000
aI528
aI33204
aI1610541437
a(lp140
aNaNaa(lp141
S'linux-mips64-msb'
p142
aI2
aI1000
aI1000
aI720
aI33204
aI1610541437
a(lp143
aNaNaa(lp144
S'linux-microblaze-msb'
p145
aI2
aI1000
aI1000
aI228
aI33204
aI1610541437
a(lp146
aNaNaa(lp147
S'linux-m32r-msb'
p148
aI2
aI1000
aI1000
aI228
aI33204
aI1610541437
a(lp149
aNaNaa(lp150
S'linux-bfin-lsb'
p151
aI2
aI1000
aI1000
aI4240
aI33204
aI1610541437
a(lp152
aNaNaa(lp153
S'linux-ia64-lsb'
p154
aI2
aI1000
aI1000
aI360
aI33204
aI1610541437
a(lp155
aNaNaa(lp156
S'linux-s390x-msb'
p157
aI2
aI1000
aI1000
aI336
aI33204
aI1610541437
a(lp158
aNaNaa(lp159
S'linux-nios-lsb'
p160
aI2
aI1000
aI1000
aI228
aI33204
aI1610541437
a(lp161
aNaNaa(lp162
S'linux-m68k-msb'
p163
aI2
aI1000
aI1000
aI224
aI33204
aI1610541437
a(lp164
aNaNaa(lp165
S'linux-sh-msb'
p166
aI2
aI1000
aI1000
aI224
aI33204
aI1610541437
a(lp167
aNaNaa(lp168
S'linux-tilegx64-lsb'
p169
aI2
aI1000
aI1000
aI344
aI33204
aI1610541437
a(lp170
aNaNaa(lp171
S'linux-sh-lsb'
p172
aI2
aI1000
aI1000
aI224
aI33204
aI1610541437
a(lp173
aNaNaa(lp174
S'linux-nios-msb'
p175
aI2
aI1000
aI1000
aI228
aI33204
aI1610541437
a(lp176
aNaNaa(lp177
S'linux-hppa-msb'
p178
aI2
aI1000
aI1000
aI228
aI33204
aI1610541437
a(lp179
aNaNaa(lp180
S'bsd-mips-lsb'
p181
aI2
aI1000
aI1000
aI540
aI33204
aI1610541437
a(lp182
aNaNaa(lp183
S'linux-powerpc-msb'
p184
aI2
aI1000
aI1000
aI556
aI33204
aI1610541437
a(lp185
aNaNaa(lp186
S'linux-x86-lsb'
p187
aI2
aI1000
aI1000
aI224
aI33204
aI1610541437
a(lp188
aNaNaa(lp189
S'bsd-aarch64-lsb'
p190
aI2
aI1000
aI1000
aI336
aI33204
aI1610541437
a(lp191
aNaNaa(lp192
S'osx-x64-lsb'
p193
aI2
aI1000
aI1000
aI4248
aI33204
aI1610541437
a(lp194
aNaNaa(lp195
S'linux-mips64-lsb'
p196
aI2
aI1000
aI1000
aI720
aI33204
aI1610541437
a(lp197
aNaNaa(lp198
S'linux-mips-msb'
p199
aI2
aI1000
aI1000
aI540
aI33204
aI1610541437
a(lp200
aNaNaa(lp201
S'linux-mn10300-lsb'
p202
aI2
aI1000
aI1000
aI224
aI33204
aI1610541437
a(lp203
aNaNaa(lp204
S'bsd-x32-lsb'
p205
aI2
aI1000
aI1000
aI224
aI33204
aI1610541437
a(lp206
aNaNaa(lp207
S'bsd-sparc64-msb'
p208
aI2
aI1000
aI1000
aI336
aI33204
aI1610541437
a(lp209
aNaNaa(lp210
S'linux-hppa64-msb'
p211
aI2
aI1000
aI1000
aI536
aI33204
aI1610541437
a(lp212
aNaNaa(lp213
S'linux-h8300-msb'
p214
aI2
aI1000
aI1000
aI492
aI33204
aI1610541437
a(lp215
aNaNaa(lp216
S'bsd-aarch64-msb'
p217
aI2
aI1000
aI1000
aI336
aI33204
aI1610541437
a(lp218
aNaNaa(lp219
S'linux-tilegx-lsb'
p220
aI2
aI1000
aI1000
aI236
aI33204
aI1610541437
a(lp221
aNaNaa(lp222
S'linux-xtensa-msb'
p223
aI2
aI1000
aI1000
aI396
aI33204
aI1610541437
a(lp224
aNaNaa(lp225
S'linux-cris-lsb'
p226
aI2
aI1000
aI1000
aI228
aI33204
aI1610541437
a(lp227
aNaNaa(lp228
S'linux-powerpc64-msb'
p229
aI2
aI1000
aI1000
aI408
aI33204
aI1610541437
a(lp230
aNaNaa(lp231
S'linux-avr32-lsb'
p232
aI2
aI1000
aI1000
aI304
aI33204
aI1610541437
a(lp233
aNaNaa(lp234
S'linux-powerpc64-lsb'
p235
aI2
aI1000
aI1000
aI408
aI33204
aI1610541437
a(lp236
aNaNaa(lp237
S'src'
p238
aI1
aI1000
aI1000
aI4096
aI16893
aI1610541437
a(lp239
(lp240
S'nop-mips64.asm'
p241
aI2
aI1000
aI1000
aI35
aI33204
aI1610541437
a(lp242
aNaNaa(lp243
S'nop-osx.asm'
p244
aI2
aI1000
aI1000
aI31
aI33204
aI1610541437
a(lp245
aNaNaa(lp246
S'nop-bfin.asm'
p247
aI2
aI1000
aI1000
aI35
aI33204
aI1610541437
a(lp248
aNaNaa(lp249
S'nop-arc.asm'
p250
aI2
aI1000
aI1000
aI35
aI33204
aI1610541437
a(lp251
aNaNaa(lp252
S'nop-hppa64.asm'
p253
aI2
aI1000
aI1000
aI29
aI33204
aI1610541437
a(lp254
aNaNaa(lp255
S'nop-mips.asm'
p256
aI2
aI1000
aI1000
aI35
aI33204
aI1610541437
a(lp257
aNaNaa(lp258
S'README'
p259
aI2
aI1000
aI1000
aI487
aI33204
aI1610541437
a(lp260
aNaNaa(lp261
S'nop.asm'
p262
aI2
aI1000
aI1000
aI33
aI33204
aI1610541437
a(lp263
aNaNaa(lp264
S'nop-ia64.asm'
p265
aI2
aI1000
aI1000
aI37
aI33204
aI1610541437
a(lp266
aNaNaaaNaNaa(lp267
S'bsd-sparc-msb'
p268
aI2
aI1000
aI1000
aI228
aI33204
aI1610541437
a(lp269
aNaNaa(lp270
S'linux-sparc-msb'
p271
aI2
aI1000
aI1000
aI228
aI33204
aI1610541437
a(lp272
aNaNaa(lp273
S'linux-tilegx-msb'
p274
aI2
aI1000
aI1000
aI236
aI33204
aI1610541437
a(lp275
aNaNaa(lp276
S'linux-riscv64-lsb'
p277
aI2
aI1000
aI1000
aI336
aI33204
aI1610541437
a(lp278
aNaNaa(lp279
S'bsd-bfin-msb'
p280
aI2
aI1000
aI1000
aI544
aI33204
aI1610541437
a(lp281
aNaNaa(lp282
S'bsd-riscv64-lsb'
p283
aI2
aI1000
aI1000
aI336
aI33204
aI1610541437
a(lp284
aNaNaa(lp285
S'linux-alpha-lsb'
p286
aI2
aI1000
aI1000
aI336
aI33204
aI1610541437
a(lp287
aNaNaa(lp288
S'linux-mips-lsb'
p289
aI2
aI1000
aI1000
aI540
aI33204
aI1610541437
a(lp290
aNaNaa(lp291
S'bsd-mips64-lsb'
p292
aI2
aI1000
aI1000
aI720
aI33204
aI1610541437
a(lp293
aNaNaa(lp294
S'bsd-x64-lsb'
p295
aI2
aI1000
aI1000
aI336
aI33204
aI1610541437
a(lp296
aNaNaa(lp297
S'bsd-powepc-msb'
p298
aI2
aI1000
aI1000
aI228
aI33204
aI1610541437
a(lp299
aNaNaa(lp300
S'linux-x64-lsb'
p301
aI2
aI1000
aI1000
aI336
aI33204
aI1610541437
a(lp302
aNaNaaaNaNaa(lp303
S'pool_configs'
p304
aI1
aI1000
aI1000
aI4096
aI16893
aI1610541437
a(lp305
(lp306
S'wrt_arm_guest.xml'
p307
aI2
aI1000
aI1000
aI1529
aI33204
aI1610541437
a(lp308
aNaNaa(lp309
S'wrt_x86_guest.xml'
p310
aI2
aI1000
aI1000
aI2734
aI33204
aI1610541437
a(lp311
aNaNaa(lp312
S'default_filter.xml'
p313
aI2
aI1000
aI1000
aI955
aI33204
aI1610541437
a(lp314
aNaNaa(lp315
S'default_network.xml'
p316
aI2
aI1000
aI1000
aI403
aI33204
aI1610541437
a(lp317
aNaNaa(lp318
S'default_guest.xml'
p319
aI2
aI1000
aI1000
aI2150
aI33204
aI1610541437
a(lp320
aNaNaaaNaNaa(lp321
S'.gitignore'
p322
aI2
aI1000
aI1000
aI0
aI33204
aI1610541437
a(lp323
aNaNaa(lp324
S'cmdoutput.json'
p325
aI2
aI1000
aI1000
aI21102
aI33204
aI1610541437
a(lp326
aNaNaaaS''
p327
a.
